; Function Attrs: mustprogress nounwind uwtable
define hidden void @_ZN4llvm13CodeViewDebug25discoverJumpTableBranchesEPKNS_15MachineFunctionEb(ptr noundef nonnull align 8 dereferenceable(1312) %0, ptr noundef %1, i1 noundef zeroext %2) local_unnamed_addr #0 align 2 {
  %4 = alloca %"class.std::function.1246", align 8
  %5 = ptrtoint ptr %0 to i64
  %6 = getelementptr inbounds nuw i8, ptr %4, i64 16
  %7 = getelementptr inbounds nuw i8, ptr %4, i64 24
  %8 = getelementptr inbounds nuw i8, ptr %4, i64 8
  store i64 0, ptr %8, align 8
  store i64 %5, ptr %4, align 8
  store ptr @"_ZNSt17_Function_handlerIFvRKN4llvm20MachineJumpTableInfoERKNS0_12MachineInstrElEZNS0_13CodeViewDebug25discoverJumpTableBranchesEPKNS0_15MachineFunctionEbE3$_0E9_M_invokeERKSt9_Any_dataS3_S6_Ol", ptr %7, align 8
  store ptr @"_ZNSt17_Function_handlerIFvRKN4llvm20MachineJumpTableInfoERKNS0_12MachineInstrElEZNS0_13CodeViewDebug25discoverJumpTableBranchesEPKNS0_15MachineFunctionEbE3$_0E10_M_managerERSt9_Any_dataRKSE_St18_Manager_operation", ptr %6, align 8
  call void @_Z22forEachJumpTableBranchPKN4llvm15MachineFunctionEbRKSt8functionIFvRKNS_20MachineJumpTableInfoERKNS_12MachineInstrElEE(ptr noundef %1, i1 noundef zeroext %2, ptr noundef nonnull align 8 dereferenceable(32) %4)
  %9 = load ptr, ptr %6, align 8
  %.not.i.i = icmp eq ptr %9, null
  br i1 %.not.i.i, label %_ZNSt8functionIFvRKN4llvm20MachineJumpTableInfoERKNS0_12MachineInstrElEED2Ev.exit, label %10

10:                                               ; preds = %3
  %11 = call noundef zeroext i1 %9(ptr noundef nonnull align 8 dereferenceable(32) %4, ptr noundef nonnull align 8 dereferenceable(32) %4, i32 noundef 3) #23
  br label %_ZNSt8functionIFvRKN4llvm20MachineJumpTableInfoERKNS0_12MachineInstrElEED2Ev.exit

_ZNSt8functionIFvRKN4llvm20MachineJumpTableInfoERKNS0_12MachineInstrElEED2Ev.exit: ; preds = %3, %10
  ret void
}